target datalayout = "e-m:e-p270:32:32-p271:32:32-p272:64:64-i64:64-i128:128-f80:128-n8:16:32:64-S128"
target triple = "x86_64-pc-linux-gnu"

; Function Attrs: nounwind uwtable
define internal void @chroma_mc(ptr noundef %0, i32 noundef %1, ptr noundef %2, i32 noundef %3, i32 noundef %4, i32 noundef %5, i32 noundef %6, i32 noundef %7) #1 {
  %9 = alloca ptr, align 8
  %10 = alloca i32, align 4
  %11 = alloca ptr, align 8
  %12 = alloca i32, align 4
  %13 = alloca i32, align 4
  %14 = alloca i32, align 4
  %15 = alloca i32, align 4
  %16 = alloca i32, align 4
  %17 = alloca i32, align 4
  %18 = alloca i32, align 4
  %19 = alloca i32, align 4
  %20 = alloca i32, align 4
  %21 = alloca i32, align 4
  %22 = alloca i32, align 4
  %23 = alloca i32, align 4
  %24 = alloca i32, align 4
  %25 = alloca i32, align 4
  %26 = alloca i32, align 4
  %27 = alloca i32, align 4
  %28 = alloca i32, align 4
  %29 = alloca i32, align 4
  store ptr %0, ptr %9, align 8, !tbaa !46
  store i32 %1, ptr %10, align 4, !tbaa !36
  store ptr %2, ptr %11, align 8, !tbaa !46
  store i32 %3, ptr %12, align 4, !tbaa !36
  store i32 %4, ptr %13, align 4, !tbaa !36
  store i32 %5, ptr %14, align 4, !tbaa !36
  store i32 %6, ptr %15, align 4, !tbaa !36
  store i32 %7, ptr %16, align 4, !tbaa !36
  %30 = load i32, ptr %15, align 4, !tbaa !36
  %31 = icmp ne i32 %30, 0
  br i1 %31, label %60, label %32

32:                                               ; preds = %8
  %33 = load i32, ptr %16, align 4, !tbaa !36
  %34 = icmp ne i32 %33, 0
  br i1 %34, label %60, label %35

35:                                               ; preds = %32
  call void @llvm.lifetime.start.p0(i64 4, ptr %17) #11
  store i32 0, ptr %17, align 4, !tbaa !36
  br label %36

36:                                               ; preds = %56, %35
  %37 = load i32, ptr %17, align 4, !tbaa !36
  %38 = load i32, ptr %14, align 4, !tbaa !36
  %39 = icmp slt i32 %37, %38
  br i1 %39, label %41, label %40

40:                                               ; preds = %36
  call void @llvm.lifetime.end.p0(i64 4, ptr %17) #11
  br label %59

41:                                               ; preds = %36
  %42 = load ptr, ptr %9, align 8, !tbaa !46
  %43 = load i32, ptr %17, align 4, !tbaa !36
  %44 = load i32, ptr %10, align 4, !tbaa !36
  %45 = mul nsw i32 %43, %44
  %46 = sext i32 %45 to i64
  %47 = getelementptr inbounds i8, ptr %42, i64 %46
  %48 = load ptr, ptr %11, align 8, !tbaa !46
  %49 = load i32, ptr %17, align 4, !tbaa !36
  %50 = load i32, ptr %12, align 4, !tbaa !36
  %51 = mul nsw i32 %49, %50
  %52 = sext i32 %51 to i64
  %53 = getelementptr inbounds i8, ptr %48, i64 %52
  %54 = load i32, ptr %13, align 4, !tbaa !36
  %55 = sext i32 %54 to i64
  call void @llvm.memcpy.p0.p0.i64(ptr align 1 %47, ptr align 1 %53, i64 %55, i1 false)
  br label %56

56:                                               ; preds = %41
  %57 = load i32, ptr %17, align 4, !tbaa !36
  %58 = add nsw i32 %57, 1
  store i32 %58, ptr %17, align 4, !tbaa !36
  br label %36, !llvm.loop !270

59:                                               ; preds = %40
  br label %257

60:                                               ; preds = %32, %8
  %61 = load i32, ptr %15, align 4, !tbaa !36
  %62 = icmp sgt i32 %61, 0
  br i1 %62, label %63, label %176

63:                                               ; preds = %60
  %64 = load i32, ptr %16, align 4, !tbaa !36
  %65 = icmp sgt i32 %64, 0
  br i1 %65, label %66, label %176

66:                                               ; preds = %63
  call void @llvm.lifetime.start.p0(i64 4, ptr %18) #11
  call void @llvm.lifetime.start.p0(i64 4, ptr %19) #11
  call void @llvm.lifetime.start.p0(i64 4, ptr %20) #11
  call void @llvm.lifetime.start.p0(i64 4, ptr %21) #11
  %67 = load i32, ptr %15, align 4, !tbaa !36
  %68 = icmp eq i32 %67, 3
  br i1 %68, label %69, label %73

69:                                               ; preds = %66
  %70 = load i32, ptr %16, align 4, !tbaa !36
  %71 = icmp eq i32 %70, 3
  br i1 %71, label %72, label %73

72:                                               ; preds = %69
  store i32 2, ptr %16, align 4, !tbaa !36
  br label %73

73:                                               ; preds = %72, %69, %66
  %74 = load i32, ptr %15, align 4, !tbaa !36
  %75 = sub nsw i32 4, %74
  %76 = load i32, ptr %16, align 4, !tbaa !36
  %77 = sub nsw i32 4, %76
  %78 = mul nsw i32 %75, %77
  store i32 %78, ptr %18, align 4, !tbaa !36
  %79 = load i32, ptr %15, align 4, !tbaa !36
  %80 = load i32, ptr %16, align 4, !tbaa !36
  %81 = sub nsw i32 4, %80
  %82 = mul nsw i32 %79, %81
  store i32 %82, ptr %19, align 4, !tbaa !36
  %83 = load i32, ptr %15, align 4, !tbaa !36
  %84 = sub nsw i32 4, %83
  %85 = load i32, ptr %16, align 4, !tbaa !36
  %86 = mul nsw i32 %84, %85
  store i32 %86, ptr %20, align 4, !tbaa !36
  %87 = load i32, ptr %15, align 4, !tbaa !36
  %88 = load i32, ptr %16, align 4, !tbaa !36
  %89 = mul nsw i32 %87, %88
  store i32 %89, ptr %21, align 4, !tbaa !36
  call void @llvm.lifetime.start.p0(i64 4, ptr %22) #11
  store i32 0, ptr %22, align 4, !tbaa !36
  br label %90

90:                                               ; preds = %172, %73
  %91 = load i32, ptr %22, align 4, !tbaa !36
  %92 = load i32, ptr %14, align 4, !tbaa !36
  %93 = icmp slt i32 %91, %92
  br i1 %93, label %95, label %94

94:                                               ; preds = %90
  store i32 5, ptr %23, align 4
  call void @llvm.lifetime.end.p0(i64 4, ptr %22) #11
  br label %175

95:                                               ; preds = %90
  call void @llvm.lifetime.start.p0(i64 4, ptr %24) #11
  store i32 0, ptr %24, align 4, !tbaa !36
  br label %96

96:                                               ; preds = %168, %95
  %97 = load i32, ptr %24, align 4, !tbaa !36
  %98 = load i32, ptr %13, align 4, !tbaa !36
  %99 = icmp slt i32 %97, %98
  br i1 %99, label %101, label %100

100:                                              ; preds = %96
  store i32 8, ptr %23, align 4
  call void @llvm.lifetime.end.p0(i64 4, ptr %24) #11
  br label %171

101:                                              ; preds = %96
  %102 = load i32, ptr %18, align 4, !tbaa !36
  %103 = load ptr, ptr %11, align 8, !tbaa !46
  %104 = load i32, ptr %22, align 4, !tbaa !36
  %105 = load i32, ptr %12, align 4, !tbaa !36
  %106 = mul nsw i32 %104, %105
  %107 = load i32, ptr %24, align 4, !tbaa !36
  %108 = add nsw i32 %106, %107
  %109 = sext i32 %108 to i64
  %110 = getelementptr inbounds i8, ptr %103, i64 %109
  %111 = load i8, ptr %110, align 1, !tbaa !48
  %112 = zext i8 %111 to i32
  %113 = mul nsw i32 %102, %112
  %114 = load i32, ptr %19, align 4, !tbaa !36
  %115 = load ptr, ptr %11, align 8, !tbaa !46
  %116 = load i32, ptr %22, align 4, !tbaa !36
  %117 = load i32, ptr %12, align 4, !tbaa !36
  %118 = mul nsw i32 %116, %117
  %119 = load i32, ptr %24, align 4, !tbaa !36
  %120 = add nsw i32 %118, %119
  %121 = add nsw i32 %120, 1
  %122 = sext i32 %121 to i64
  %123 = getelementptr inbounds i8, ptr %115, i64 %122
  %124 = load i8, ptr %123, align 1, !tbaa !48
  %125 = zext i8 %124 to i32
  %126 = mul nsw i32 %114, %125
  %127 = add nsw i32 %113, %126
  %128 = load i32, ptr %20, align 4, !tbaa !36
  %129 = load ptr, ptr %11, align 8, !tbaa !46
  %130 = load i32, ptr %22, align 4, !tbaa !36
  %131 = add nsw i32 %130, 1
  %132 = load i32, ptr %12, align 4, !tbaa !36
  %133 = mul nsw i32 %131, %132
  %134 = load i32, ptr %24, align 4, !tbaa !36
  %135 = add nsw i32 %133, %134
  %136 = sext i32 %135 to i64
  %137 = getelementptr inbounds i8, ptr %129, i64 %136
  %138 = load i8, ptr %137, align 1, !tbaa !48
  %139 = zext i8 %138 to i32
  %140 = mul nsw i32 %128, %139
  %141 = add nsw i32 %127, %140
  %142 = load i32, ptr %21, align 4, !tbaa !36
  %143 = load ptr, ptr %11, align 8, !tbaa !46
  %144 = load i32, ptr %22, align 4, !tbaa !36
  %145 = add nsw i32 %144, 1
  %146 = load i32, ptr %12, align 4, !tbaa !36
  %147 = mul nsw i32 %145, %146
  %148 = load i32, ptr %24, align 4, !tbaa !36
  %149 = add nsw i32 %147, %148
  %150 = add nsw i32 %149, 1
  %151 = sext i32 %150 to i64
  %152 = getelementptr inbounds i8, ptr %143, i64 %151
  %153 = load i8, ptr %152, align 1, !tbaa !48
  %154 = zext i8 %153 to i32
  %155 = mul nsw i32 %142, %154
  %156 = add nsw i32 %141, %155
  %157 = add nsw i32 %156, 8
  %158 = ashr i32 %157, 4
  %159 = trunc i32 %158 to i8
  %160 = load ptr, ptr %9, align 8, !tbaa !46
  %161 = load i32, ptr %22, align 4, !tbaa !36
  %162 = load i32, ptr %10, align 4, !tbaa !36
  %163 = mul nsw i32 %161, %162
  %164 = load i32, ptr %24, align 4, !tbaa !36
  %165 = add nsw i32 %163, %164
  %166 = sext i32 %165 to i64
  %167 = getelementptr inbounds i8, ptr %160, i64 %166
  store i8 %159, ptr %167, align 1, !tbaa !48
  br label %168

168:                                              ; preds = %101
  %169 = load i32, ptr %24, align 4, !tbaa !36
  %170 = add nsw i32 %169, 1
  store i32 %170, ptr %24, align 4, !tbaa !36
  br label %96, !llvm.loop !271

171:                                              ; preds = %100
  br label %172

172:                                              ; preds = %171
  %173 = load i32, ptr %22, align 4, !tbaa !36
  %174 = add nsw i32 %173, 1
  store i32 %174, ptr %22, align 4, !tbaa !36
  br label %90, !llvm.loop !272

175:                                              ; preds = %94
  call void @llvm.lifetime.end.p0(i64 4, ptr %21) #11
  call void @llvm.lifetime.end.p0(i64 4, ptr %20) #11
  call void @llvm.lifetime.end.p0(i64 4, ptr %19) #11
  call void @llvm.lifetime.end.p0(i64 4, ptr %18) #11
  br label %256

176:                                              ; preds = %63, %60
  call void @llvm.lifetime.start.p0(i64 4, ptr %25) #11
  %177 = load i32, ptr %15, align 4, !tbaa !36
  %178 = sub nsw i32 4, %177
  %179 = load i32, ptr %16, align 4, !tbaa !36
  %180 = sub nsw i32 4, %179
  %181 = mul nsw i32 %178, %180
  store i32 %181, ptr %25, align 4, !tbaa !36
  call void @llvm.lifetime.start.p0(i64 4, ptr %26) #11
  %182 = load i32, ptr %15, align 4, !tbaa !36
  %183 = load i32, ptr %16, align 4, !tbaa !36
  %184 = sub nsw i32 4, %183
  %185 = mul nsw i32 %182, %184
  %186 = load i32, ptr %15, align 4, !tbaa !36
  %187 = sub nsw i32 4, %186
  %188 = load i32, ptr %16, align 4, !tbaa !36
  %189 = mul nsw i32 %187, %188
  %190 = add nsw i32 %185, %189
  store i32 %190, ptr %26, align 4, !tbaa !36
  call void @llvm.lifetime.start.p0(i64 4, ptr %27) #11
  %191 = load i32, ptr %16, align 4, !tbaa !36
  %192 = icmp sgt i32 %191, 0
  br i1 %192, label %193, label %195

193:                                              ; preds = %176
  %194 = load i32, ptr %12, align 4, !tbaa !36
  br label %196

195:                                              ; preds = %176
  br label %196

196:                                              ; preds = %195, %193
  %197 = phi i32 [ %194, %193 ], [ 1, %195 ]
  store i32 %197, ptr %27, align 4, !tbaa !36
  call void @llvm.lifetime.start.p0(i64 4, ptr %28) #11
  store i32 0, ptr %28, align 4, !tbaa !36
  br label %198

198:                                              ; preds = %252, %196
  %199 = load i32, ptr %28, align 4, !tbaa !36
  %200 = load i32, ptr %14, align 4, !tbaa !36
  %201 = icmp slt i32 %199, %200
  br i1 %201, label %203, label %202

202:                                              ; preds = %198
  store i32 11, ptr %23, align 4
  call void @llvm.lifetime.end.p0(i64 4, ptr %28) #11
  br label %255

203:                                              ; preds = %198
  call void @llvm.lifetime.start.p0(i64 4, ptr %29) #11
  store i32 0, ptr %29, align 4, !tbaa !36
  br label %204

204:                                              ; preds = %248, %203
  %205 = load i32, ptr %29, align 4, !tbaa !36
  %206 = load i32, ptr %13, align 4, !tbaa !36
  %207 = icmp slt i32 %205, %206
  br i1 %207, label %209, label %208

208:                                              ; preds = %204
  store i32 14, ptr %23, align 4
  call void @llvm.lifetime.end.p0(i64 4, ptr %29) #11
  br label %251

209:                                              ; preds = %204
  %210 = load i32, ptr %25, align 4, !tbaa !36
  %211 = load ptr, ptr %11, align 8, !tbaa !46
  %212 = load i32, ptr %28, align 4, !tbaa !36
  %213 = load i32, ptr %12, align 4, !tbaa !36
  %214 = mul nsw i32 %212, %213
  %215 = load i32, ptr %29, align 4, !tbaa !36
  %216 = add nsw i32 %214, %215
  %217 = sext i32 %216 to i64
  %218 = getelementptr inbounds i8, ptr %211, i64 %217
  %219 = load i8, ptr %218, align 1, !tbaa !48
  %220 = zext i8 %219 to i32
  %221 = mul nsw i32 %210, %220
  %222 = load i32, ptr %26, align 4, !tbaa !36
  %223 = load ptr, ptr %11, align 8, !tbaa !46
  %224 = load i32, ptr %28, align 4, !tbaa !36
  %225 = load i32, ptr %12, align 4, !tbaa !36
  %226 = mul nsw i32 %224, %225
  %227 = load i32, ptr %29, align 4, !tbaa !36
  %228 = add nsw i32 %226, %227
  %229 = load i32, ptr %27, align 4, !tbaa !36
  %230 = add nsw i32 %228, %229
  %231 = sext i32 %230 to i64
  %232 = getelementptr inbounds i8, ptr %223, i64 %231
  %233 = load i8, ptr %232, align 1, !tbaa !48
  %234 = zext i8 %233 to i32
  %235 = mul nsw i32 %222, %234
  %236 = add nsw i32 %221, %235
  %237 = add nsw i32 %236, 8
  %238 = ashr i32 %237, 4
  %239 = trunc i32 %238 to i8
  %240 = load ptr, ptr %9, align 8, !tbaa !46
  %241 = load i32, ptr %28, align 4, !tbaa !36
  %242 = load i32, ptr %10, align 4, !tbaa !36
  %243 = mul nsw i32 %241, %242
  %244 = load i32, ptr %29, align 4, !tbaa !36
  %245 = add nsw i32 %243, %244
  %246 = sext i32 %245 to i64
  %247 = getelementptr inbounds i8, ptr %240, i64 %246
  store i8 %239, ptr %247, align 1, !tbaa !48
  br label %248

248:                                              ; preds = %209
  %249 = load i32, ptr %29, align 4, !tbaa !36
  %250 = add nsw i32 %249, 1
  store i32 %250, ptr %29, align 4, !tbaa !36
  br label %204, !llvm.loop !273

251:                                              ; preds = %208
  br label %252

252:                                              ; preds = %251
  %253 = load i32, ptr %28, align 4, !tbaa !36
  %254 = add nsw i32 %253, 1
  store i32 %254, ptr %28, align 4, !tbaa !36
  br label %198, !llvm.loop !274

255:                                              ; preds = %202
  call void @llvm.lifetime.end.p0(i64 4, ptr %27) #11
  call void @llvm.lifetime.end.p0(i64 4, ptr %26) #11
  call void @llvm.lifetime.end.p0(i64 4, ptr %25) #11
  br label %256

256:                                              ; preds = %255, %175
  br label %257

257:                                              ; preds = %256, %59
  ret void
}